target datalayout = "e-m:e-p270:32:32-p271:32:32-p272:64:64-i64:64-i128:128-f80:128-n8:16:32:64-S128"
target triple = "x86_64-pc-linux-gnu"

%"class.datalog::relation_manager" = type { ptr, ptr, %class.ptr_vector, %class.ptr_vector.0, %class.map, %class.map.2, %class.u_map, ptr, ptr, %class.obj_map, %class.obj_hashtable, i32, i32, %class.obj_map.17 }
%class.ptr_vector = type { %class.vector }
%class.vector = type { ptr }
%class.ptr_vector.0 = type { %class.vector.1 }
%class.vector.1 = type { ptr }
%class.map = type { %class.table2map }
%class.table2map = type { %class.core_hashtable }
%class.core_hashtable = type <{ ptr, i32, i32, i32, [4 x i8] }>
%class.map.2 = type { %class.table2map.3 }
%class.table2map.3 = type { %class.core_hashtable.4 }
%class.core_hashtable.4 = type <{ ptr, i32, i32, i32, [4 x i8] }>
%class.u_map = type { %class.map.8 }
%class.map.8 = type { %class.table2map.9 }
%class.table2map.9 = type { %class.core_hashtable.10 }
%class.core_hashtable.10 = type <{ ptr, i32, i32, i32, [4 x i8] }>
%class.obj_map = type { %class.core_hashtable.12 }
%class.core_hashtable.12 = type <{ ptr, i32, i32, i32, [4 x i8] }>
%class.obj_hashtable = type { %class.core_hashtable.base.16, [4 x i8] }
%class.core_hashtable.base.16 = type <{ ptr, i32, i32, i32 }>
%class.obj_map.17 = type { %class.core_hashtable.18 }
%class.core_hashtable.18 = type <{ ptr, i32, i32, i32, [4 x i8] }>
%"class.datalog::context" = type <{ ptr, ptr, ptr, %class.params_ref, ptr, i8, i8, [6 x i8], %class.symbol, %"class.datalog::dl_decl_util", %class.th_rewriter, %class.var_subst, %"class.datalog::rule_manager", %"class.datalog::context::contains_pred", %"class.datalog::rule_properties", %"class.datalog::rule_transformer", %class.trail_stack, %class.ref_vector.76, %class.bind_variables, %class.obj_map.93, %class.obj_hashtable, %class.map.98, %class.obj_map.102, %"class.datalog::rule_set", %"class.datalog::rule_set", %class.expr_free_vars, i32, [4 x i8], %class.ref_vector, %class.svector.91, %class.vector.131, %class.ref_vector, %class.ref, %class.ref.132, ptr, %class.scoped_ptr.133, i8, i8, i8, i8, i32, %class.obj_ref, %class.obj_ref, i32, [4 x i8] }>
%class.params_ref = type { ptr }
%class.symbol = type { ptr }
%"class.datalog::dl_decl_util" = type <{ ptr, %class.scoped_ptr, %class.scoped_ptr.22, i32, [4 x i8] }>
%class.scoped_ptr = type { ptr }
%class.scoped_ptr.22 = type { ptr }
%class.th_rewriter = type { ptr, %class.params_ref }
%class.var_subst = type { %class.beta_reducer, i8, [7 x i8] }
%class.beta_reducer = type <{ %class.rewriter_tpl, [8 x i8] }>
%class.rewriter_tpl = type { %class.rewriter_core, ptr, i32, %class.ptr_vector.26, %class.var_shifter, %class.inv_var_shifter, %class.obj_ref, %class.obj_ref.41, %class.obj_ref.41, %class.svector.42 }
%class.rewriter_core = type { ptr, ptr, i8, i8, %class.ptr_vector.23, ptr, %class.svector, %class.ref_vector, %class.ptr_vector.23, ptr, %class.ref_vector.28, %class.obj_hashtable.33, ptr, i32, %class.svector.39 }
%class.svector = type { %class.vector.25 }
%class.vector.25 = type { ptr }
%class.ptr_vector.23 = type { %class.vector.24 }
%class.vector.24 = type { ptr }
%class.ref_vector.28 = type { %class.ref_vector_core.29 }
%class.ref_vector_core.29 = type { %class.ref_manager_wrapper.30, %class.ptr_vector.31 }
%class.ref_manager_wrapper.30 = type { ptr }
%class.ptr_vector.31 = type { %class.vector.32 }
%class.vector.32 = type { ptr }
%class.obj_hashtable.33 = type { %class.core_hashtable.base.37, [4 x i8] }
%class.core_hashtable.base.37 = type <{ ptr, i32, i32, i32 }>
%class.svector.39 = type { %class.vector.40 }
%class.vector.40 = type { ptr }
%class.ptr_vector.26 = type { %class.vector.27 }
%class.vector.27 = type { ptr }
%class.var_shifter = type <{ %class.var_shifter_core, i32, i32, i32, [4 x i8] }>
%class.var_shifter_core = type { %class.rewriter_core }
%class.inv_var_shifter = type <{ %class.var_shifter_core, i32, [4 x i8] }>
%class.obj_ref.41 = type { ptr, ptr }
%class.svector.42 = type { %class.vector.43 }
%class.vector.43 = type { ptr }
%"class.datalog::rule_manager" = type { ptr, ptr, %"class.datalog::rule_counter", %class.used_vars, %class.uint_set, %class.expr_free_vars, %class.ref_vector.28, %class.obj_ref.41, %class.ref_vector, %class.svector.57, %class.hnf, %class.qe_lite, %class.label_rewriter, %"struct.datalog::uninterpreted_function_finder_proc", %"struct.datalog::quantifier_finder_proc", [5 x i8], %class.expr_sparse_mark, %"struct.datalog::fd_finder_proc" }
%"class.datalog::rule_counter" = type { %class.var_counter }
%class.var_counter = type { %class.counter, %class.ast_fast_mark, %class.expr_free_vars, %class.ptr_vector.26, %class.svector.42 }
%class.counter = type { %class.u_map.44 }
%class.u_map.44 = type { %class.map.45 }
%class.map.45 = type { %class.table2map.46 }
%class.table2map.46 = type { %class.core_hashtable.47 }
%class.core_hashtable.47 = type <{ ptr, i32, i32, i32, [4 x i8] }>
%class.ast_fast_mark = type { %class.ptr_buffer }
%class.ptr_buffer = type { %class.buffer }
%class.buffer = type { ptr, i32, i32, [128 x i8] }
%class.used_vars = type { %class.ptr_vector.49, %class.hashtable, %class.svector.55, i32, i32 }
%class.ptr_vector.49 = type { %class.vector.50 }
%class.vector.50 = type { ptr }
%class.hashtable = type { %class.core_hashtable.base.54, [4 x i8] }
%class.core_hashtable.base.54 = type <{ ptr, i32, i32, i32 }>
%class.svector.55 = type { %class.vector.56 }
%class.vector.56 = type { ptr }
%class.uint_set = type { %class.svector.42 }
%class.svector.57 = type { %class.vector.58 }
%class.vector.58 = type { ptr }
%class.hnf = type { ptr }
%class.qe_lite = type { ptr }
%class.label_rewriter = type { i32, %class.rewriter_tpl.59 }
%class.rewriter_tpl.59 = type { %class.rewriter_core, ptr, i32, %class.ptr_vector.26, %class.var_shifter, %class.inv_var_shifter, %class.obj_ref, %class.obj_ref.41, %class.obj_ref.41, %class.svector.42 }
%"struct.datalog::uninterpreted_function_finder_proc" = type { ptr, %"class.datatype::util", %"class.datalog::dl_decl_util", i8, ptr }
%"class.datatype::util" = type { ptr, i32, ptr }
%"struct.datalog::quantifier_finder_proc" = type { i8, i8, i8 }
%class.expr_sparse_mark = type { %class.obj_hashtable.33 }
%"struct.datalog::fd_finder_proc" = type <{ ptr, %class.bv_util, i8, [7 x i8] }>
%class.bv_util = type { %class.bv_recognizers, ptr, ptr }
%class.bv_recognizers = type { i32 }
%"class.datalog::context::contains_pred" = type { %class.i_expr_pred, ptr }
%class.i_expr_pred = type { ptr }
%"class.datalog::rule_properties" = type <{ ptr, ptr, ptr, ptr, %"class.datatype::util", %"class.datalog::dl_decl_util", %class.arith_util, %class.bv_util, %class.array_util, %"class.recfun::util", i8, [7 x i8], ptr, %class.obj_map.60, %class.obj_map.65, %class.ptr_vector.70, %class.ptr_vector.70, %class.ptr_vector.70, i8, i8, [6 x i8] }>
%class.arith_util = type { ptr, ptr }
%class.array_util = type { %class.array_recognizers, ptr }
%class.array_recognizers = type { i32 }
%"class.recfun::util" = type { ptr, i32, ptr }
%class.obj_map.60 = type { %class.core_hashtable.61 }
%class.core_hashtable.61 = type <{ ptr, i32, i32, i32, [4 x i8] }>
%class.obj_map.65 = type { %class.core_hashtable.66 }
%class.core_hashtable.66 = type <{ ptr, i32, i32, i32, [4 x i8] }>
%class.ptr_vector.70 = type { %class.vector.71 }
%class.vector.71 = type { ptr }
%"class.datalog::rule_transformer" = type { ptr, ptr, i8, %class.svector.72 }
%class.svector.72 = type { %class.vector.73 }
%class.vector.73 = type { ptr }
%class.trail_stack = type { %class.ptr_vector.74, %class.svector.42, %class.region }
%class.ptr_vector.74 = type { %class.vector.75 }
%class.vector.75 = type { ptr }
%class.region = type { ptr, ptr, ptr, ptr, ptr }
%class.ref_vector.76 = type { %class.ref_vector_core.77 }
%class.ref_vector_core.77 = type { %class.ref_manager_wrapper.78, %class.ptr_vector.79 }
%class.ref_manager_wrapper.78 = type { ptr }
%class.ptr_vector.79 = type { %class.vector.80 }
%class.vector.80 = type { ptr }
%class.bind_variables = type { ptr, %class.ref_vector.28, %class.obj_map.81, %class.obj_map.86, %class.ref_vector, %class.ptr_vector.49, %class.svector.91, %class.ptr_vector.26, %class.ptr_vector.26 }
%class.obj_map.81 = type { %class.core_hashtable.82 }
%class.core_hashtable.82 = type <{ ptr, i32, i32, i32, [4 x i8] }>
%class.obj_map.86 = type { %class.core_hashtable.87 }
%class.core_hashtable.87 = type <{ ptr, i32, i32, i32, [4 x i8] }>
%class.obj_map.93 = type { %class.core_hashtable.94 }
%class.core_hashtable.94 = type <{ ptr, i32, i32, i32, [4 x i8] }>
%class.map.98 = type { %class.table2map.99 }
%class.table2map.99 = type { %class.core_hashtable.100 }
%class.core_hashtable.100 = type <{ ptr, i32, i32, i32, [4 x i8] }>
%class.obj_map.102 = type { %class.core_hashtable.103 }
%class.core_hashtable.103 = type <{ ptr, i32, i32, i32, [4 x i8] }>
%"class.datalog::rule_set" = type { ptr, ptr, %class.ref_vector.107, %class.obj_map.110, %"class.datalog::rule_dependencies", %class.scoped_ptr.120, %class.obj_hashtable, %class.obj_map.121, %class.obj_map.121, %class.ref_vector.126, %class.ptr_vector.70 }
%class.ref_vector.107 = type { %class.ref_vector_core.108 }
%class.ref_vector_core.108 = type { %class.ref_manager_wrapper.109, %class.ptr_vector.70 }
%class.ref_manager_wrapper.109 = type { ptr }
%class.obj_map.110 = type { %class.core_hashtable.111 }
%class.core_hashtable.111 = type <{ ptr, i32, i32, i32, [4 x i8] }>
%"class.datalog::rule_dependencies" = type { %class.obj_map.115, ptr, %class.ptr_vector.26, %class.expr_sparse_mark, %class.obj_hashtable }
%class.obj_map.115 = type { %class.core_hashtable.116 }
%class.core_hashtable.116 = type <{ ptr, i32, i32, i32, [4 x i8] }>
%class.scoped_ptr.120 = type { ptr }
%class.obj_map.121 = type { %class.core_hashtable.122 }
%class.core_hashtable.122 = type <{ ptr, i32, i32, i32, [4 x i8] }>
%class.ref_vector.126 = type { %class.ref_vector_core.127 }
%class.ref_vector_core.127 = type { %class.ref_manager_wrapper.128, %class.ptr_vector.129 }
%class.ref_manager_wrapper.128 = type { ptr }
%class.ptr_vector.129 = type { %class.vector.130 }
%class.vector.130 = type { ptr }
%class.expr_free_vars = type { %class.expr_sparse_mark, %class.ptr_vector.49, %class.ptr_vector.26 }
%class.svector.91 = type { %class.vector.92 }
%class.vector.92 = type { ptr }
%class.vector.131 = type { ptr }
%class.ref_vector = type { %class.ref_vector_core }
%class.ref_vector_core = type { %class.ref_manager_wrapper, %class.ptr_vector.26 }
%class.ref_manager_wrapper = type { ptr }
%class.ref = type { ptr }
%class.ref.132 = type { ptr }
%class.scoped_ptr.133 = type { ptr }
%class.obj_ref = type { ptr, ptr }
%class.decl = type { %class.ast, %class.symbol, ptr }
%class.ast = type { i32, i32, i32, i32 }
%class.decl_info = type <{ i32, i32, %class.vector.205, i8, [7 x i8] }>
%class.vector.205 = type { ptr }

; Function Attrs: mustprogress nounwind uwtable
define linkonce_odr hidden noundef i32 @_ZNK9decl_info13get_decl_kindEv(ptr noundef nonnull align 8 dereferenceable(17) %0) #4 comdat align 2 {
  %2 = alloca ptr, align 8
  store ptr %0, ptr %2, align 8, !tbaa !646
  %3 = load ptr, ptr %2, align 8
  %4 = getelementptr inbounds nuw %class.decl_info, ptr %3, i32 0, i32 1
  %5 = load i32, ptr %4, align 4, !tbaa !651
  ret i32 %5
}

; Function Attrs: mustprogress nounwind uwtable
define linkonce_odr hidden noundef i32 @_ZNK9decl_info13get_family_idEv(ptr noundef nonnull align 8 dereferenceable(17) %0) #4 comdat align 2 {
  %2 = alloca ptr, align 8
  store ptr %0, ptr %2, align 8, !tbaa !646
  %3 = load ptr, ptr %2, align 8
  %4 = getelementptr inbounds nuw %class.decl_info, ptr %3, i32 0, i32 0
  %5 = load i32, ptr %4, align 8, !tbaa !647
  ret i32 %5
}

; Function Attrs: mustprogress uwtable
define linkonce_odr hidden noundef i32 @_ZNK4decl13get_decl_kindEv(ptr noundef nonnull align 8 dereferenceable(32) %0) #5 comdat align 2 {
  %2 = alloca ptr, align 8
  store ptr %0, ptr %2, align 8, !tbaa !435
  %3 = load ptr, ptr %2, align 8
  %4 = getelementptr inbounds nuw %class.decl, ptr %3, i32 0, i32 2
  %5 = load ptr, ptr %4, align 8, !tbaa !645
  %6 = icmp eq ptr %5, null
  br i1 %6, label %7, label %8

7:                                                ; preds = %1
  br label %12

8:                                                ; preds = %1
  %9 = getelementptr inbounds nuw %class.decl, ptr %3, i32 0, i32 2
  %10 = load ptr, ptr %9, align 8, !tbaa !645
  %11 = call noundef i32 @_ZNK9decl_info13get_decl_kindEv(ptr noundef nonnull align 8 dereferenceable(17) %10)
  br label %12

12:                                               ; preds = %8, %7
  %13 = phi i32 [ -1, %7 ], [ %11, %8 ]
  ret i32 %13
}

; Function Attrs: mustprogress uwtable
define linkonce_odr hidden noundef i32 @_ZNK4decl13get_family_idEv(ptr noundef nonnull align 8 dereferenceable(32) %0) #5 comdat align 2 {
  %2 = alloca ptr, align 8
  store ptr %0, ptr %2, align 8, !tbaa !435
  %3 = load ptr, ptr %2, align 8
  %4 = getelementptr inbounds nuw %class.decl, ptr %3, i32 0, i32 2
  %5 = load ptr, ptr %4, align 8, !tbaa !645
  %6 = icmp eq ptr %5, null
  br i1 %6, label %7, label %8

7:                                                ; preds = %1
  br label %12

8:                                                ; preds = %1
  %9 = getelementptr inbounds nuw %class.decl, ptr %3, i32 0, i32 2
  %10 = load ptr, ptr %9, align 8, !tbaa !645
  %11 = call noundef i32 @_ZNK9decl_info13get_family_idEv(ptr noundef nonnull align 8 dereferenceable(17) %10)
  br label %12

12:                                               ; preds = %8, %7
  %13 = phi i32 [ -1, %7 ], [ %11, %8 ]
  ret i32 %13
}

; Function Attrs: mustprogress uwtable
define linkonce_odr hidden noundef zeroext i1 @_ZNK4sort10is_sort_ofEii(ptr noundef nonnull align 8 dereferenceable(32) %0, i32 noundef %1, i32 noundef %2) #5 comdat align 2 {
  %4 = alloca ptr, align 8
  %5 = alloca i32, align 4
  %6 = alloca i32, align 4
  store ptr %0, ptr %4, align 8, !tbaa !369
  store i32 %1, ptr %5, align 4, !tbaa !279
  store i32 %2, ptr %6, align 4, !tbaa !279
  %7 = load ptr, ptr %4, align 8
  %8 = call noundef i32 @_ZNK4decl13get_family_idEv(ptr noundef nonnull align 8 dereferenceable(32) %7)
  %9 = load i32, ptr %5, align 4, !tbaa !279
  %10 = icmp eq i32 %8, %9
  br i1 %10, label %11, label %15

11:                                               ; preds = %3
  %12 = call noundef i32 @_ZNK4decl13get_decl_kindEv(ptr noundef nonnull align 8 dereferenceable(32) %7)
  %13 = load i32, ptr %6, align 4, !tbaa !279
  %14 = icmp eq i32 %12, %13
  br label %15

15:                                               ; preds = %11, %3
  %16 = phi i1 [ false, %3 ], [ %14, %11 ]
  ret i1 %16
}

; Function Attrs: inlinehint mustprogress uwtable
define linkonce_odr hidden noundef zeroext i1 @_Z10is_sort_ofPK4sortii(ptr noundef %0, i32 noundef %1, i32 noundef %2) #11 comdat {
  %4 = alloca ptr, align 8
  %5 = alloca i32, align 4
  %6 = alloca i32, align 4
  store ptr %0, ptr %4, align 8, !tbaa !369
  store i32 %1, ptr %5, align 4, !tbaa !279
  store i32 %2, ptr %6, align 4, !tbaa !279
  %7 = load ptr, ptr %4, align 8, !tbaa !369
  %8 = load i32, ptr %5, align 4, !tbaa !279
  %9 = load i32, ptr %6, align 4, !tbaa !279
  %10 = call noundef zeroext i1 @_ZNK4sort10is_sort_ofEii(ptr noundef nonnull align 8 dereferenceable(32) %7, i32 noundef %8, i32 noundef %9)
  ret i1 %10
}

; Function Attrs: mustprogress uwtable
define linkonce_odr hidden noundef zeroext i1 @_ZNK7datalog12dl_decl_util12is_rule_sortEP4sort(ptr noundef nonnull align 8 dereferenceable(28) %0, ptr noundef %1) #5 comdat align 2 {
  %3 = alloca ptr, align 8
  %4 = alloca ptr, align 8
  store ptr %0, ptr %3, align 8, !tbaa !367
  store ptr %1, ptr %4, align 8, !tbaa !369
  %5 = load ptr, ptr %3, align 8
  %6 = load ptr, ptr %4, align 8, !tbaa !369
  %7 = call noundef i32 @_ZNK7datalog12dl_decl_util13get_family_idEv(ptr noundef nonnull align 8 dereferenceable(28) %5)
  %8 = call noundef zeroext i1 @_Z10is_sort_ofPK4sortii(ptr noundef %6, i32 noundef %7, i32 noundef 2)
  ret i1 %8
}

; Function Attrs: mustprogress nounwind uwtable
define linkonce_odr hidden noundef nonnull align 8 dereferenceable(8) ptr @_ZNK6vectorIP4sortLb0EjEixEj(ptr noundef nonnull align 8 dereferenceable(8) %0, i32 noundef %1) #4 comdat align 2 {
  %3 = alloca ptr, align 8
  %4 = alloca i32, align 4
  store ptr %0, ptr %3, align 8, !tbaa !372
  store i32 %1, ptr %4, align 4, !tbaa !279
  %5 = load ptr, ptr %3, align 8
  %6 = getelementptr inbounds nuw %class.vector.50, ptr %5, i32 0, i32 0
  %7 = load ptr, ptr %6, align 8, !tbaa !374
  %8 = load i32, ptr %4, align 4, !tbaa !279
  %9 = zext i32 %8 to i64
  %10 = getelementptr inbounds nuw ptr, ptr %7, i64 %9
  ret ptr %10
}

; Function Attrs: mustprogress nounwind uwtable
define linkonce_odr hidden noundef i32 @_ZNK6vectorIP4sortLb0EjE4sizeEv(ptr noundef nonnull align 8 dereferenceable(8) %0) #4 comdat align 2 {
  %2 = alloca i32, align 4
  %3 = alloca ptr, align 8
  store ptr %0, ptr %3, align 8, !tbaa !372
  %4 = load ptr, ptr %3, align 8
  %5 = getelementptr inbounds nuw %class.vector.50, ptr %4, i32 0, i32 0
  %6 = load ptr, ptr %5, align 8, !tbaa !374
  %7 = icmp eq ptr %6, null
  br i1 %7, label %8, label %9

8:                                                ; preds = %1
  store i32 0, ptr %2, align 4
  br label %14

9:                                                ; preds = %1
  %10 = getelementptr inbounds nuw %class.vector.50, ptr %4, i32 0, i32 0
  %11 = load ptr, ptr %10, align 8, !tbaa !374
  %12 = getelementptr inbounds i32, ptr %11, i64 -1
  %13 = load i32, ptr %12, align 4, !tbaa !279
  store i32 %13, ptr %2, align 4
  br label %14

14:                                               ; preds = %9, %8
  %15 = load i32, ptr %2, align 4
  ret i32 %15
}

; Function Attrs: mustprogress nounwind uwtable
define linkonce_odr hidden noundef nonnull align 8 dereferenceable(28) ptr @_ZN7datalog7context13get_decl_utilEv(ptr noundef nonnull align 8 dereferenceable(3028) %0) #4 comdat align 2 {
  %2 = alloca ptr, align 8
  store ptr %0, ptr %2, align 8, !tbaa !77
  %3 = load ptr, ptr %2, align 8
  %4 = getelementptr inbounds nuw %"class.datalog::context", ptr %3, i32 0, i32 9
  ret ptr %4
}

; Function Attrs: mustprogress nounwind uwtable
define linkonce_odr hidden noundef nonnull align 8 dereferenceable(3028) ptr @_ZNK7datalog16relation_manager11get_contextEv(ptr noundef nonnull align 8 dereferenceable(200) %0) #4 comdat align 2 {
  %2 = alloca ptr, align 8
  store ptr %0, ptr %2, align 8, !tbaa !3
  %3 = load ptr, ptr %2, align 8
  %4 = getelementptr inbounds nuw %"class.datalog::relation_manager", ptr %3, i32 0, i32 1
  %5 = load ptr, ptr %4, align 8, !tbaa !76
  ret ptr %5
}

; Function Attrs: mustprogress uwtable
define hidden noundef zeroext i1 @_ZNK7datalog16relation_manager18is_non_explanationERKNS_18relation_signatureE(ptr noundef nonnull align 8 dereferenceable(200) %0, ptr noundef nonnull align 8 dereferenceable(8) %1) #5 align 2 {
  %3 = alloca i1, align 1
  %4 = alloca ptr, align 8
  %5 = alloca ptr, align 8
  %6 = alloca ptr, align 8
  %7 = alloca i32, align 4
  %8 = alloca i32, align 4
  %9 = alloca i32, align 4
  store ptr %0, ptr %4, align 8, !tbaa !3
  store ptr %1, ptr %5, align 8, !tbaa !294
  %10 = load ptr, ptr %4, align 8
  call void @llvm.lifetime.start.p0(i64 8, ptr %6) #3
  %11 = call noundef nonnull align 8 dereferenceable(3028) ptr @_ZNK7datalog16relation_manager11get_contextEv(ptr noundef nonnull align 8 dereferenceable(200) %10)
  %12 = call noundef nonnull align 8 dereferenceable(28) ptr @_ZN7datalog7context13get_decl_utilEv(ptr noundef nonnull align 8 dereferenceable(3028) %11)
  store ptr %12, ptr %6, align 8, !tbaa !367
  call void @llvm.lifetime.start.p0(i64 4, ptr %7) #3
  %13 = load ptr, ptr %5, align 8, !tbaa !294
  %14 = call noundef i32 @_ZNK6vectorIP4sortLb0EjE4sizeEv(ptr noundef nonnull align 8 dereferenceable(8) %13)
  store i32 %14, ptr %7, align 4, !tbaa !279
  call void @llvm.lifetime.start.p0(i64 4, ptr %8) #3
  store i32 0, ptr %8, align 4, !tbaa !279
  br label %15

15:                                               ; preds = %29, %2
  %16 = load i32, ptr %8, align 4, !tbaa !279
  %17 = load i32, ptr %7, align 4, !tbaa !279
  %18 = icmp ult i32 %16, %17
  br i1 %18, label %20, label %19

19:                                               ; preds = %15
  store i32 2, ptr %9, align 4
  br label %32

20:                                               ; preds = %15
  %21 = load ptr, ptr %6, align 8, !tbaa !367
  %22 = load ptr, ptr %5, align 8, !tbaa !294
  %23 = load i32, ptr %8, align 4, !tbaa !279
  %24 = call noundef nonnull align 8 dereferenceable(8) ptr @_ZNK6vectorIP4sortLb0EjEixEj(ptr noundef nonnull align 8 dereferenceable(8) %22, i32 noundef %23)
  %25 = load ptr, ptr %24, align 8, !tbaa !369
  %26 = call noundef zeroext i1 @_ZNK7datalog12dl_decl_util12is_rule_sortEP4sort(ptr noundef nonnull align 8 dereferenceable(28) %21, ptr noundef %25)
  br i1 %26, label %27, label %28

27:                                               ; preds = %20
  store i1 false, ptr %3, align 1
  store i32 1, ptr %9, align 4
  br label %32

28:                                               ; preds = %20
  br label %29

29:                                               ; preds = %28
  %30 = load i32, ptr %8, align 4, !tbaa !279
  %31 = add i32 %30, 1
  store i32 %31, ptr %8, align 4, !tbaa !279
  br label %15, !llvm.loop !371

32:                                               ; preds = %27, %19
  call void @llvm.lifetime.end.p0(i64 4, ptr %8) #3
  %33 = load i32, ptr %9, align 4
  switch i32 %33, label %35 [
    i32 2, label %34
  ]

34:                                               ; preds = %32
  store i1 true, ptr %3, align 1
  store i32 1, ptr %9, align 4
  br label %35

35:                                               ; preds = %34, %32
  call void @llvm.lifetime.end.p0(i64 4, ptr %7) #3
  call void @llvm.lifetime.end.p0(i64 8, ptr %6) #3
  %36 = load i1, ptr %3, align 1
  ret i1 %36
}