; Function Attrs: mustprogress uwtable
define hidden noundef zeroext i1 @_ZNK7datalog16relation_manager18is_non_explanationERKNS_18relation_signatureE(ptr noundef nonnull readonly align 8 captures(none) dereferenceable(200) %0, ptr noundef nonnull readonly align 8 captures(none) dereferenceable(8) %1) local_unnamed_addr #4 align 2 {
  %3 = getelementptr inbounds nuw i8, ptr %0, i64 8
  %4 = load ptr, ptr %3, align 8, !tbaa !69
  %5 = getelementptr inbounds nuw i8, ptr %4, i64 56
  %6 = load ptr, ptr %1, align 8, !tbaa !278
  %7 = icmp eq ptr %6, null
  br i1 %7, label %.critedge, label %_ZNK6vectorIP4sortLb0EjE4sizeEv.exit

_ZNK6vectorIP4sortLb0EjE4sizeEv.exit:             ; preds = %2
  %8 = getelementptr inbounds i8, ptr %6, i64 -4
  %9 = load i32, ptr %8, align 4, !tbaa !34
  %.not11 = icmp eq i32 %9, 0
  br i1 %.not11, label %.critedge, label %.lr.ph.preheader

.lr.ph.preheader:                                 ; preds = %_ZNK6vectorIP4sortLb0EjE4sizeEv.exit
  %wide.trip.count = zext i32 %9 to i64
  br label %.lr.ph

.lr.ph:                                           ; preds = %.lr.ph.preheader, %_ZNK7datalog12dl_decl_util12is_rule_sortEP4sort.exit.thread
  %indvars.iv = phi i64 [ 0, %.lr.ph.preheader ], [ %indvars.iv.next, %_ZNK7datalog12dl_decl_util12is_rule_sortEP4sort.exit.thread ]
  %10 = load ptr, ptr %1, align 8, !tbaa !278
  %11 = getelementptr inbounds nuw ptr, ptr %10, i64 %indvars.iv
  %12 = load ptr, ptr %11, align 8, !tbaa !284
  %13 = tail call noundef i32 @_ZNK7datalog12dl_decl_util13get_family_idEv(ptr noundef nonnull align 8 dereferenceable(28) %5)
  %14 = getelementptr inbounds nuw i8, ptr %12, i64 24
  %15 = load ptr, ptr %14, align 8, !tbaa !366
  %16 = icmp eq ptr %15, null
  br i1 %16, label %_ZNK7datalog12dl_decl_util12is_rule_sortEP4sort.exit.thread, label %_ZNK4decl13get_family_idEv.exit.thread.i.i.i

_ZNK4decl13get_family_idEv.exit.thread.i.i.i:     ; preds = %.lr.ph
  %17 = load i32, ptr %15, align 8, !tbaa !367
  %18 = icmp eq i32 %17, %13
  br i1 %18, label %_ZNK7datalog12dl_decl_util12is_rule_sortEP4sort.exit, label %_ZNK7datalog12dl_decl_util12is_rule_sortEP4sort.exit.thread

_ZNK7datalog12dl_decl_util12is_rule_sortEP4sort.exit: ; preds = %_ZNK4decl13get_family_idEv.exit.thread.i.i.i
  %19 = getelementptr inbounds nuw i8, ptr %15, i64 4
  %20 = load i32, ptr %19, align 4, !tbaa !371
  %21 = icmp eq i32 %20, 2
  br i1 %21, label %.critedge, label %_ZNK7datalog12dl_decl_util12is_rule_sortEP4sort.exit.thread

_ZNK7datalog12dl_decl_util12is_rule_sortEP4sort.exit.thread: ; preds = %.lr.ph, %_ZNK4decl13get_family_idEv.exit.thread.i.i.i, %_ZNK7datalog12dl_decl_util12is_rule_sortEP4sort.exit
  %indvars.iv.next = add nuw nsw i64 %indvars.iv, 1
  %exitcond.not = icmp eq i64 %indvars.iv.next, %wide.trip.count
  br i1 %exitcond.not, label %.critedge, label %.lr.ph, !llvm.loop !372

.critedge:                                        ; preds = %_ZNK7datalog12dl_decl_util12is_rule_sortEP4sort.exit, %_ZNK7datalog12dl_decl_util12is_rule_sortEP4sort.exit.thread, %2, %_ZNK6vectorIP4sortLb0EjE4sizeEv.exit
  %.not.lcssa = phi i1 [ true, %_ZNK6vectorIP4sortLb0EjE4sizeEv.exit ], [ true, %2 ], [ true, %_ZNK7datalog12dl_decl_util12is_rule_sortEP4sort.exit.thread ], [ false, %_ZNK7datalog12dl_decl_util12is_rule_sortEP4sort.exit ]
  ret i1 %.not.lcssa
}